; Function Attrs: mustprogress uwtable
define noundef double @_ZNK8QuantLib2G218discountBondOptionENS_6Option4TypeEddd(ptr noundef nonnull align 8 dereferenceable(200) %this, i32 noundef %type, double noundef %strike, double noundef %maturity, double noundef %bondMaturity) unnamed_addr #8 align 2 {
entry:
  %call = tail call noundef double @_ZNK8QuantLib2G26sigmaPEdd(ptr noundef nonnull align 8 dereferenceable(200) %this, double noundef %maturity, double noundef %bondMaturity)
  %termStructure_.i = getelementptr inbounds i8, ptr %this, i64 96
  %call3 = tail call noundef nonnull align 8 dereferenceable(16) ptr @_ZNK8QuantLib6HandleINS_18YieldTermStructureEEptEv(ptr noundef nonnull align 8 dereferenceable(16) %termStructure_.i)
  %0 = load ptr, ptr %call3, align 8, !tbaa !116
  %cmp.not.i = icmp eq ptr %0, null
  br i1 %cmp.not.i, label %cond.false.i, label %_ZNK5boost10shared_ptrIN8QuantLib18YieldTermStructureEEptEv.exit, !prof !85

cond.false.i:                                     ; preds = %entry
  tail call void @_ZN5boost16assertion_failedEPKcS1_S1_l(ptr noundef nonnull @.str.11, ptr noundef nonnull @__PRETTY_FUNCTION__._ZNK5boost10shared_ptrIN8QuantLib18YieldTermStructureEEptEv, ptr noundef nonnull @.str.12, i64 noundef 784)
  %.pre.i = load ptr, ptr %call3, align 8, !tbaa !116
  br label %_ZNK5boost10shared_ptrIN8QuantLib18YieldTermStructureEEptEv.exit

_ZNK5boost10shared_ptrIN8QuantLib18YieldTermStructureEEptEv.exit: ; preds = %entry, %cond.false.i
  %1 = phi ptr [ %0, %entry ], [ %.pre.i, %cond.false.i ]
  %call5 = tail call noundef double @_ZNK8QuantLib18YieldTermStructure8discountEdb(ptr noundef nonnull align 8 dereferenceable(152) %1, double noundef %bondMaturity, i1 noundef zeroext false)
  %call8 = tail call noundef nonnull align 8 dereferenceable(16) ptr @_ZNK8QuantLib6HandleINS_18YieldTermStructureEEptEv(ptr noundef nonnull align 8 dereferenceable(16) %termStructure_.i)
  %2 = load ptr, ptr %call8, align 8, !tbaa !116
  %cmp.not.i4 = icmp eq ptr %2, null
  br i1 %cmp.not.i4, label %cond.false.i5, label %_ZNK5boost10shared_ptrIN8QuantLib18YieldTermStructureEEptEv.exit7, !prof !85

cond.false.i5:                                    ; preds = %_ZNK5boost10shared_ptrIN8QuantLib18YieldTermStructureEEptEv.exit
  tail call void @_ZN5boost16assertion_failedEPKcS1_S1_l(ptr noundef nonnull @.str.11, ptr noundef nonnull @__PRETTY_FUNCTION__._ZNK5boost10shared_ptrIN8QuantLib18YieldTermStructureEEptEv, ptr noundef nonnull @.str.12, i64 noundef 784)
  %.pre.i6 = load ptr, ptr %call8, align 8, !tbaa !116
  br label %_ZNK5boost10shared_ptrIN8QuantLib18YieldTermStructureEEptEv.exit7

_ZNK5boost10shared_ptrIN8QuantLib18YieldTermStructureEEptEv.exit7: ; preds = %_ZNK5boost10shared_ptrIN8QuantLib18YieldTermStructureEEptEv.exit, %cond.false.i5
  %3 = phi ptr [ %2, %_ZNK5boost10shared_ptrIN8QuantLib18YieldTermStructureEEptEv.exit ], [ %.pre.i6, %cond.false.i5 ]
  %call10 = tail call noundef double @_ZNK8QuantLib18YieldTermStructure8discountEdb(ptr noundef nonnull align 8 dereferenceable(152) %3, double noundef %maturity, i1 noundef zeroext false)
  %mul = fmul double %strike, %call10
  %call11 = tail call noundef double @_ZN8QuantLib12blackFormulaENS_6Option4TypeEddddd(i32 noundef %type, double noundef %mul, double noundef %call5, double noundef %call, double noundef 1.000000e+00, double noundef 0.000000e+00)
  ret double %call11
}